target datalayout = "e-m:e-p270:32:32-p271:32:32-p272:64:64-i64:64-i128:128-f80:128-n8:16:32:64-S128"
target triple = "x86_64-pc-linux-gnu"

%struct.lean_object = type { i32, i32 }

@l_Lake_JobAction_verb___closed__1 = internal global ptr null, align 8
@l_Lake_JobAction_verb___closed__2 = internal global ptr null, align 8
@l_Lake_JobAction_verb___closed__3 = internal global ptr null, align 8
@l_Lake_JobAction_verb___closed__4 = internal global ptr null, align 8
@l_Lake_JobAction_verb___closed__5 = internal global ptr null, align 8
@l_Lake_JobAction_verb___closed__6 = internal global ptr null, align 8
@l_Lake_JobAction_verb___closed__7 = internal global ptr null, align 8
@l_Lake_JobAction_verb___closed__8 = internal global ptr null, align 8

; Function Attrs: alwaysinline nounwind uwtable
define internal void @lean_dec_ref(ptr noundef %0) #0 {
  %2 = alloca ptr, align 8
  store ptr %0, ptr %2, align 8, !tbaa !4
  %3 = load ptr, ptr %2, align 8, !tbaa !4
  %4 = getelementptr inbounds nuw %struct.lean_object, ptr %3, i32 0, i32 0
  %5 = load i32, ptr %4, align 4, !tbaa !15
  %6 = icmp sgt i32 %5, 1
  %7 = zext i1 %6 to i32
  %8 = sext i32 %7 to i64
  %9 = call i64 @llvm.expect.i64(i64 %8, i64 1)
  %10 = icmp ne i64 %9, 0
  br i1 %10, label %11, label %16

11:                                               ; preds = %1
  %12 = load ptr, ptr %2, align 8, !tbaa !4
  %13 = getelementptr inbounds nuw %struct.lean_object, ptr %12, i32 0, i32 0
  %14 = load i32, ptr %13, align 4, !tbaa !15
  %15 = add i32 %14, -1
  store i32 %15, ptr %13, align 4, !tbaa !15
  br label %24

16:                                               ; preds = %1
  %17 = load ptr, ptr %2, align 8, !tbaa !4
  %18 = getelementptr inbounds nuw %struct.lean_object, ptr %17, i32 0, i32 0
  %19 = load i32, ptr %18, align 4, !tbaa !15
  %20 = icmp ne i32 %19, 0
  br i1 %20, label %21, label %23

21:                                               ; preds = %16
  %22 = load ptr, ptr %2, align 8, !tbaa !4
  call void @lean_dec_ref_cold(ptr noundef %22)
  br label %23

23:                                               ; preds = %21, %16
  br label %24

24:                                               ; preds = %23, %11
  ret void
}

; Function Attrs: alwaysinline nounwind uwtable
define internal zeroext i1 @lean_is_scalar(ptr noundef %0) #0 {
  %2 = alloca ptr, align 8
  store ptr %0, ptr %2, align 8, !tbaa !4
  %3 = load ptr, ptr %2, align 8, !tbaa !4
  %4 = ptrtoint ptr %3 to i64
  %5 = and i64 %4, 1
  %6 = icmp eq i64 %5, 1
  ret i1 %6
}

; Function Attrs: nounwind uwtable
define ptr @l_Lake_JobAction_verb(i8 noundef zeroext %0, i8 noundef zeroext %1) #2 {
  %3 = alloca ptr, align 8
  %4 = alloca i8, align 1
  %5 = alloca i8, align 1
  %6 = alloca ptr, align 8
  %7 = alloca ptr, align 8
  %8 = alloca ptr, align 8
  %9 = alloca ptr, align 8
  %10 = alloca ptr, align 8
  %11 = alloca ptr, align 8
  %12 = alloca ptr, align 8
  %13 = alloca ptr, align 8
  store i8 %0, ptr %4, align 1, !tbaa !10
  store i8 %1, ptr %5, align 1, !tbaa !10
  br label %14

14:                                               ; preds = %2
  %15 = load i8, ptr %5, align 1, !tbaa !10
  %16 = zext i8 %15 to i32
  switch i32 %16, label %47 [
    i32 0, label %17
    i32 1, label %27
    i32 2, label %37
  ]

17:                                               ; preds = %14
  %18 = load i8, ptr %4, align 1, !tbaa !10
  %19 = zext i8 %18 to i32
  %20 = icmp eq i32 %19, 0
  br i1 %20, label %21, label %24

21:                                               ; preds = %17
  call void @llvm.lifetime.start.p0(i64 8, ptr %6) #7
  %22 = load ptr, ptr @l_Lake_JobAction_verb___closed__1, align 8, !tbaa !4
  store ptr %22, ptr %6, align 8, !tbaa !4
  %23 = load ptr, ptr %6, align 8, !tbaa !4
  store ptr %23, ptr %3, align 8
  call void @llvm.lifetime.end.p0(i64 8, ptr %6) #7
  br label %57

24:                                               ; preds = %17
  call void @llvm.lifetime.start.p0(i64 8, ptr %7) #7
  %25 = load ptr, ptr @l_Lake_JobAction_verb___closed__2, align 8, !tbaa !4
  store ptr %25, ptr %7, align 8, !tbaa !4
  %26 = load ptr, ptr %7, align 8, !tbaa !4
  store ptr %26, ptr %3, align 8
  call void @llvm.lifetime.end.p0(i64 8, ptr %7) #7
  br label %57

27:                                               ; preds = %14
  %28 = load i8, ptr %4, align 1, !tbaa !10
  %29 = zext i8 %28 to i32
  %30 = icmp eq i32 %29, 0
  br i1 %30, label %31, label %34

31:                                               ; preds = %27
  call void @llvm.lifetime.start.p0(i64 8, ptr %8) #7
  %32 = load ptr, ptr @l_Lake_JobAction_verb___closed__3, align 8, !tbaa !4
  store ptr %32, ptr %8, align 8, !tbaa !4
  %33 = load ptr, ptr %8, align 8, !tbaa !4
  store ptr %33, ptr %3, align 8
  call void @llvm.lifetime.end.p0(i64 8, ptr %8) #7
  br label %57

34:                                               ; preds = %27
  call void @llvm.lifetime.start.p0(i64 8, ptr %9) #7
  %35 = load ptr, ptr @l_Lake_JobAction_verb___closed__4, align 8, !tbaa !4
  store ptr %35, ptr %9, align 8, !tbaa !4
  %36 = load ptr, ptr %9, align 8, !tbaa !4
  store ptr %36, ptr %3, align 8
  call void @llvm.lifetime.end.p0(i64 8, ptr %9) #7
  br label %57

37:                                               ; preds = %14
  %38 = load i8, ptr %4, align 1, !tbaa !10
  %39 = zext i8 %38 to i32
  %40 = icmp eq i32 %39, 0
  br i1 %40, label %41, label %44

41:                                               ; preds = %37
  call void @llvm.lifetime.start.p0(i64 8, ptr %10) #7
  %42 = load ptr, ptr @l_Lake_JobAction_verb___closed__5, align 8, !tbaa !4
  store ptr %42, ptr %10, align 8, !tbaa !4
  %43 = load ptr, ptr %10, align 8, !tbaa !4
  store ptr %43, ptr %3, align 8
  call void @llvm.lifetime.end.p0(i64 8, ptr %10) #7
  br label %57

44:                                               ; preds = %37
  call void @llvm.lifetime.start.p0(i64 8, ptr %11) #7
  %45 = load ptr, ptr @l_Lake_JobAction_verb___closed__6, align 8, !tbaa !4
  store ptr %45, ptr %11, align 8, !tbaa !4
  %46 = load ptr, ptr %11, align 8, !tbaa !4
  store ptr %46, ptr %3, align 8
  call void @llvm.lifetime.end.p0(i64 8, ptr %11) #7
  br label %57

47:                                               ; preds = %14
  %48 = load i8, ptr %4, align 1, !tbaa !10
  %49 = zext i8 %48 to i32
  %50 = icmp eq i32 %49, 0
  br i1 %50, label %51, label %54

51:                                               ; preds = %47
  call void @llvm.lifetime.start.p0(i64 8, ptr %12) #7
  %52 = load ptr, ptr @l_Lake_JobAction_verb___closed__7, align 8, !tbaa !4
  store ptr %52, ptr %12, align 8, !tbaa !4
  %53 = load ptr, ptr %12, align 8, !tbaa !4
  store ptr %53, ptr %3, align 8
  call void @llvm.lifetime.end.p0(i64 8, ptr %12) #7
  br label %57

54:                                               ; preds = %47
  call void @llvm.lifetime.start.p0(i64 8, ptr %13) #7
  %55 = load ptr, ptr @l_Lake_JobAction_verb___closed__8, align 8, !tbaa !4
  store ptr %55, ptr %13, align 8, !tbaa !4
  %56 = load ptr, ptr %13, align 8, !tbaa !4
  store ptr %56, ptr %3, align 8
  call void @llvm.lifetime.end.p0(i64 8, ptr %13) #7
  br label %57

57:                                               ; preds = %54, %51, %44, %41, %34, %31, %24, %21
  %58 = load ptr, ptr %3, align 8
  ret ptr %58
}

; Function Attrs: alwaysinline nounwind uwtable
define internal void @lean_dec(ptr noundef %0) #0 {
  %2 = alloca ptr, align 8
  store ptr %0, ptr %2, align 8, !tbaa !4
  %3 = load ptr, ptr %2, align 8, !tbaa !4
  %4 = call zeroext i1 @lean_is_scalar(ptr noundef %3)
  br i1 %4, label %7, label %5

5:                                                ; preds = %1
  %6 = load ptr, ptr %2, align 8, !tbaa !4
  call void @lean_dec_ref(ptr noundef %6)
  br label %7

7:                                                ; preds = %5, %1
  ret void
}

; Function Attrs: inlinehint nounwind uwtable
define internal i64 @lean_unbox(ptr noundef %0) #1 {
  %2 = alloca ptr, align 8
  store ptr %0, ptr %2, align 8, !tbaa !4
  %3 = load ptr, ptr %2, align 8, !tbaa !4
  %4 = ptrtoint ptr %3 to i64
  %5 = lshr i64 %4, 1
  ret i64 %5
}

; Function Attrs: nounwind uwtable
define ptr @l_Lake_JobAction_verb___boxed(ptr noundef %0, ptr noundef %1) #2 {
  %3 = alloca ptr, align 8
  %4 = alloca ptr, align 8
  %5 = alloca i8, align 1
  %6 = alloca i8, align 1
  %7 = alloca ptr, align 8
  store ptr %0, ptr %3, align 8, !tbaa !4
  store ptr %1, ptr %4, align 8, !tbaa !4
  br label %8

8:                                                ; preds = %2
  call void @llvm.lifetime.start.p0(i64 1, ptr %5) #7
  call void @llvm.lifetime.start.p0(i64 1, ptr %6) #7
  call void @llvm.lifetime.start.p0(i64 8, ptr %7) #7
  %9 = load ptr, ptr %3, align 8, !tbaa !4
  %10 = call i64 @lean_unbox(ptr noundef %9)
  %11 = trunc i64 %10 to i8
  store i8 %11, ptr %5, align 1, !tbaa !10
  %12 = load ptr, ptr %3, align 8, !tbaa !4
  call void @lean_dec(ptr noundef %12)
  %13 = load ptr, ptr %4, align 8, !tbaa !4
  %14 = call i64 @lean_unbox(ptr noundef %13)
  %15 = trunc i64 %14 to i8
  store i8 %15, ptr %6, align 1, !tbaa !10
  %16 = load ptr, ptr %4, align 8, !tbaa !4
  call void @lean_dec(ptr noundef %16)
  %17 = load i8, ptr %5, align 1, !tbaa !10
  %18 = load i8, ptr %6, align 1, !tbaa !10
  %19 = call ptr @l_Lake_JobAction_verb(i8 noundef zeroext %17, i8 noundef zeroext %18)
  store ptr %19, ptr %7, align 8, !tbaa !4
  %20 = load ptr, ptr %7, align 8, !tbaa !4
  call void @llvm.lifetime.end.p0(i64 8, ptr %7) #7
  call void @llvm.lifetime.end.p0(i64 1, ptr %6) #7
  call void @llvm.lifetime.end.p0(i64 1, ptr %5) #7
  ret ptr %20
}