; Function Attrs: nounwind uwtable
define ptr @l_Lake_JobAction_verb___boxed(ptr noundef %0, ptr noundef %1) local_unnamed_addr #1 {
  %3 = ptrtoint ptr %0 to i64
  %4 = and i64 %3, 1
  %.not = icmp eq i64 %4, 0
  br i1 %.not, label %5, label %lean_dec.exit6

5:                                                ; preds = %2
  %6 = load i32, ptr %0, align 4, !tbaa !4
  %7 = icmp sgt i32 %6, 1
  br i1 %7, label %8, label %10, !prof !9

8:                                                ; preds = %5
  %9 = add nsw i32 %6, -1
  store i32 %9, ptr %0, align 4, !tbaa !4
  br label %lean_dec.exit6

10:                                               ; preds = %5
  %.not.i = icmp eq i32 %6, 0
  br i1 %.not.i, label %lean_dec.exit6, label %11

11:                                               ; preds = %10
  tail call void @lean_dec_ref_cold(ptr noundef nonnull %0) #8
  br label %lean_dec.exit6

lean_dec.exit6:                                   ; preds = %11, %10, %8, %2
  %12 = ptrtoint ptr %1 to i64
  %13 = lshr i64 %12, 1
  %14 = trunc i64 %13 to i8
  %15 = and i64 %12, 1
  %.not9 = icmp eq i64 %15, 0
  br i1 %.not9, label %16, label %lean_dec.exit

16:                                               ; preds = %lean_dec.exit6
  %17 = load i32, ptr %1, align 4, !tbaa !4
  %18 = icmp sgt i32 %17, 1
  br i1 %18, label %19, label %21, !prof !9

19:                                               ; preds = %16
  %20 = add nsw i32 %17, -1
  store i32 %20, ptr %1, align 4, !tbaa !4
  br label %lean_dec.exit

21:                                               ; preds = %16
  %.not.i7 = icmp eq i32 %17, 0
  br i1 %.not.i7, label %lean_dec.exit, label %22

22:                                               ; preds = %21
  tail call void @lean_dec_ref_cold(ptr noundef nonnull %1) #8
  br label %lean_dec.exit

lean_dec.exit:                                    ; preds = %22, %21, %19, %lean_dec.exit6
  %23 = and i64 %3, 510
  %24 = icmp eq i64 %23, 0
  switch i8 %14, label %28 [
    i8 0, label %25
    i8 1, label %26
    i8 2, label %27
  ]

25:                                               ; preds = %lean_dec.exit
  %l_Lake_JobAction_verb___closed__1.l_Lake_JobAction_verb___closed__2.i = select i1 %24, ptr @l_Lake_JobAction_verb___closed__1, ptr @l_Lake_JobAction_verb___closed__2
  br label %l_Lake_JobAction_verb.exit

26:                                               ; preds = %lean_dec.exit
  %l_Lake_JobAction_verb___closed__3.l_Lake_JobAction_verb___closed__4.i = select i1 %24, ptr @l_Lake_JobAction_verb___closed__3, ptr @l_Lake_JobAction_verb___closed__4
  br label %l_Lake_JobAction_verb.exit

27:                                               ; preds = %lean_dec.exit
  %l_Lake_JobAction_verb___closed__5.l_Lake_JobAction_verb___closed__6.i = select i1 %24, ptr @l_Lake_JobAction_verb___closed__5, ptr @l_Lake_JobAction_verb___closed__6
  br label %l_Lake_JobAction_verb.exit

28:                                               ; preds = %lean_dec.exit
  %l_Lake_JobAction_verb___closed__7.l_Lake_JobAction_verb___closed__8.i = select i1 %24, ptr @l_Lake_JobAction_verb___closed__7, ptr @l_Lake_JobAction_verb___closed__8
  br label %l_Lake_JobAction_verb.exit

l_Lake_JobAction_verb.exit:                       ; preds = %25, %26, %27, %28
  %.0.in.i = phi ptr [ %l_Lake_JobAction_verb___closed__1.l_Lake_JobAction_verb___closed__2.i, %25 ], [ %l_Lake_JobAction_verb___closed__3.l_Lake_JobAction_verb___closed__4.i, %26 ], [ %l_Lake_JobAction_verb___closed__5.l_Lake_JobAction_verb___closed__6.i, %27 ], [ %l_Lake_JobAction_verb___closed__7.l_Lake_JobAction_verb___closed__8.i, %28 ]
  %.0.i = load ptr, ptr %.0.in.i, align 8, !tbaa !10
  ret ptr %.0.i
}